; Function Attrs: nounwind uwtable
define void @Abs_ManSupport1_rec(ptr noundef readonly captures(none) %0, ptr noundef %1, ptr noundef captures(none) %2) local_unnamed_addr #2 {
  %4 = getelementptr inbounds nuw i8, ptr %0, i64 616
  %5 = getelementptr i8, ptr %0, i64 32
  %6 = getelementptr inbounds nuw i8, ptr %0, i64 176
  %7 = load ptr, ptr %4, align 8, !tbaa !61
  %.val.i26 = load ptr, ptr %5, align 8, !tbaa !3
  %8 = ptrtoint ptr %1 to i64
  %9 = ptrtoint ptr %.val.i26 to i64
  %10 = sub i64 %8, %9
  %11 = sdiv exact i64 %10, 12
  %sext.i27 = shl i64 %11, 32
  %12 = ashr exact i64 %sext.i27, 30
  %13 = getelementptr inbounds i8, ptr %7, i64 %12
  %14 = load i32, ptr %13, align 4, !tbaa !30
  %15 = load i32, ptr %6, align 8, !tbaa !60
  %.not28 = icmp eq i32 %14, %15
  br i1 %.not28, label %.loopexit, label %.lr.ph

.lr.ph:                                           ; preds = %3
  %16 = getelementptr i8, ptr %0, i64 16
  %17 = getelementptr i8, ptr %0, i64 64
  store i32 %15, ptr %13, align 4, !tbaa !30
  %18 = load i64, ptr %1, align 4
  %19 = and i64 %18, 4611686018427387904
  %.not1633 = icmp eq i64 %19, 0
  br i1 %.not1633, label %.lr.ph35, label %Gia_ObjIsRo.exit._crit_edge

20:                                               ; preds = %Gia_ObjIsRo.exit.thread
  store i32 %79, ptr %77, align 4, !tbaa !30
  %21 = load i64, ptr %70, align 4
  %22 = and i64 %21, 4611686018427387904
  %.not16 = icmp eq i64 %22, 0
  br i1 %.not16, label %.lr.ph35, label %Gia_ObjIsRo.exit._crit_edge

.lr.ph35:                                         ; preds = %.lr.ph, %20
  %23 = phi i64 [ %21, %20 ], [ %18, %.lr.ph ]
  %.tr232934 = phi ptr [ %70, %20 ], [ %1, %.lr.ph ]
  %24 = phi i64 [ %75, %20 ], [ %11, %.lr.ph ]
  %25 = and i64 %23, 2684354559
  %narrow.i.not.i = icmp eq i64 %25, 2684354559
  br i1 %narrow.i.not.i, label %Gia_ObjIsRo.exit, label %Gia_ObjIsRo.exit.thread

Gia_ObjIsRo.exit:                                 ; preds = %.lr.ph35
  %26 = lshr i64 %23, 32
  %27 = trunc nuw i64 %26 to i32
  %28 = and i32 %27, 536870911
  %.val3.i = load i32, ptr %16, align 8, !tbaa !58
  %.val4.i = load ptr, ptr %17, align 8, !tbaa !44
  %29 = getelementptr i8, ptr %.val4.i, i64 4
  %.val4.val.i = load i32, ptr %29, align 4, !tbaa !33
  %30 = sub nsw i32 %.val4.val.i, %.val3.i
  %.not22 = icmp slt i32 %28, %30
  br i1 %.not22, label %Gia_ObjIsRo.exit.thread, label %Gia_ObjIsRo.exit._crit_edge

Gia_ObjIsRo.exit._crit_edge:                      ; preds = %20, %Gia_ObjIsRo.exit, %.lr.ph
  %.lcssa = phi i64 [ %11, %.lr.ph ], [ %75, %20 ], [ %24, %Gia_ObjIsRo.exit ]
  %31 = trunc i64 %.lcssa to i32
  %32 = getelementptr inbounds nuw i8, ptr %2, i64 4
  %33 = load i32, ptr %32, align 4, !tbaa !33
  %34 = load i32, ptr %2, align 8, !tbaa !31
  %35 = icmp eq i32 %33, %34
  br i1 %35, label %36, label %.Vec_IntGrow.exit10_crit_edge.i

.Vec_IntGrow.exit10_crit_edge.i:                  ; preds = %Gia_ObjIsRo.exit._crit_edge
  %.phi.trans.insert.i = getelementptr inbounds nuw i8, ptr %2, i64 8
  %.pre.i = load ptr, ptr %.phi.trans.insert.i, align 8, !tbaa !29
  br label %Vec_IntPush.exit

36:                                               ; preds = %Gia_ObjIsRo.exit._crit_edge
  %37 = icmp slt i32 %33, 16
  br i1 %37, label %38, label %46

38:                                               ; preds = %36
  %39 = getelementptr inbounds nuw i8, ptr %2, i64 8
  %40 = load ptr, ptr %39, align 8, !tbaa !29
  %.not9.i.i = icmp eq ptr %40, null
  br i1 %.not9.i.i, label %43, label %41

41:                                               ; preds = %38
  %42 = tail call dereferenceable_or_null(64) ptr @realloc(ptr noundef nonnull %40, i64 noundef 64) #24
  br label %Vec_IntGrow.exit.i

43:                                               ; preds = %38
  %44 = tail call noalias dereferenceable_or_null(64) ptr @malloc(i64 noundef 64) #25
  br label %Vec_IntGrow.exit.i

Vec_IntGrow.exit.i:                               ; preds = %43, %41
  %45 = phi ptr [ %42, %41 ], [ %44, %43 ]
  store ptr %45, ptr %39, align 8, !tbaa !29
  store i32 16, ptr %2, align 8, !tbaa !31
  br label %Vec_IntPush.exit

46:                                               ; preds = %36
  %47 = shl nuw nsw i32 %33, 1
  %48 = getelementptr inbounds nuw i8, ptr %2, i64 8
  %49 = load ptr, ptr %48, align 8, !tbaa !29
  %.not9.i9.i = icmp eq ptr %49, null
  %50 = zext nneg i32 %47 to i64
  %51 = shl nuw nsw i64 %50, 2
  br i1 %.not9.i9.i, label %54, label %52

52:                                               ; preds = %46
  %53 = tail call ptr @realloc(ptr noundef nonnull %49, i64 noundef %51) #24
  br label %56

54:                                               ; preds = %46
  %55 = tail call noalias ptr @malloc(i64 noundef %51) #25
  br label %56

56:                                               ; preds = %54, %52
  %57 = phi ptr [ %53, %52 ], [ %55, %54 ]
  store ptr %57, ptr %48, align 8, !tbaa !29
  store i32 %47, ptr %2, align 8, !tbaa !31
  br label %Vec_IntPush.exit

Vec_IntPush.exit:                                 ; preds = %.Vec_IntGrow.exit10_crit_edge.i, %Vec_IntGrow.exit.i, %56
  %58 = phi ptr [ %.pre.i, %.Vec_IntGrow.exit10_crit_edge.i ], [ %57, %56 ], [ %45, %Vec_IntGrow.exit.i ]
  %59 = load i32, ptr %32, align 4, !tbaa !33
  %60 = add nsw i32 %59, 1
  store i32 %60, ptr %32, align 4, !tbaa !33
  %61 = sext i32 %59 to i64
  %62 = getelementptr inbounds i32, ptr %58, i64 %61
  store i32 %31, ptr %62, align 4, !tbaa !30
  br label %.loopexit

Gia_ObjIsRo.exit.thread:                          ; preds = %.lr.ph35, %Gia_ObjIsRo.exit
  %63 = and i64 %23, 536870911
  %64 = sub nsw i64 0, %63
  %65 = getelementptr inbounds %struct.Gia_Obj_t_, ptr %.tr232934, i64 %64
  tail call void @Abs_ManSupport1_rec(ptr noundef nonnull %0, ptr noundef nonnull %65, ptr noundef %2)
  %66 = load i64, ptr %.tr232934, align 4
  %67 = lshr i64 %66, 32
  %68 = and i64 %67, 536870911
  %69 = sub nsw i64 0, %68
  %70 = getelementptr inbounds %struct.Gia_Obj_t_, ptr %.tr232934, i64 %69
  %71 = load ptr, ptr %4, align 8, !tbaa !61
  %.val.i = load ptr, ptr %5, align 8, !tbaa !3
  %72 = ptrtoint ptr %70 to i64
  %73 = ptrtoint ptr %.val.i to i64
  %74 = sub i64 %72, %73
  %75 = sdiv exact i64 %74, 12
  %sext.i = shl i64 %75, 32
  %76 = ashr exact i64 %sext.i, 30
  %77 = getelementptr inbounds i8, ptr %71, i64 %76
  %78 = load i32, ptr %77, align 4, !tbaa !30
  %79 = load i32, ptr %6, align 8, !tbaa !60
  %.not = icmp eq i32 %78, %79
  br i1 %.not, label %.loopexit, label %20

.loopexit:                                        ; preds = %Gia_ObjIsRo.exit.thread, %3, %Vec_IntPush.exit
  ret void
}